target datalayout = "e-m:e-p270:32:32-p271:32:32-p272:64:64-i64:64-i128:128-f80:128-n8:16:32:64-S128"
target triple = "x86_64-pc-linux-gnu"

%struct.cache_time = type { i32, i32 }
%struct.object_id = type { [32 x i8], i32 }
%struct.index_state = type { ptr, i32, i32, i32, i32, ptr, ptr, ptr, %struct.cache_time, i8, i32, %struct.hashmap, %struct.hashmap, %struct.object_id, ptr, ptr, ptr, ptr, ptr, ptr, ptr }
%struct.hashmap = type { ptr, ptr, ptr, i32, i32, i32, i32, i8 }

@.str.45 = private unnamed_addr constant [26 x i8] c"status.showuntrackedfiles\00", align 1
@.str.46 = private unnamed_addr constant [4 x i8] c"all\00", align 1

; Function Attrs: nounwind uwtable
define internal i32 @new_untracked_cache_flags(ptr noundef %0) #0 {
  %2 = alloca i32, align 4
  %3 = alloca ptr, align 8
  %4 = alloca ptr, align 8
  %5 = alloca ptr, align 8
  %6 = alloca i32, align 4
  store ptr %0, ptr %3, align 8, !tbaa !41
  call void @llvm.lifetime.start.p0(i64 8, ptr %4) #12
  %7 = load ptr, ptr %3, align 8, !tbaa !41
  %8 = getelementptr inbounds nuw %struct.index_state, ptr %7, i32 0, i32 19
  %9 = load ptr, ptr %8, align 8, !tbaa !55
  store ptr %9, ptr %4, align 8, !tbaa !140
  call void @llvm.lifetime.start.p0(i64 8, ptr %5) #12
  %10 = load ptr, ptr %4, align 8, !tbaa !140
  %11 = call i32 @repo_config_get_string_tmp(ptr noundef %10, ptr noundef @.str.45, ptr noundef %5)
  %12 = icmp ne i32 %11, 0
  br i1 %12, label %18, label %13

13:                                               ; preds = %1
  %14 = load ptr, ptr %5, align 8, !tbaa !13
  %15 = call i32 @strcmp(ptr noundef %14, ptr noundef @.str.46) #13
  %16 = icmp ne i32 %15, 0
  br i1 %16, label %18, label %17

17:                                               ; preds = %13
  store i32 0, ptr %2, align 4
  store i32 1, ptr %6, align 4
  br label %19

18:                                               ; preds = %13, %1
  store i32 6, ptr %2, align 4
  store i32 1, ptr %6, align 4
  br label %19

19:                                               ; preds = %18, %17
  call void @llvm.lifetime.end.p0(i64 8, ptr %5) #12
  call void @llvm.lifetime.end.p0(i64 8, ptr %4) #12
  %20 = load i32, ptr %2, align 4
  ret i32 %20
}