; Function Attrs: nounwind uwtable
define internal fastcc range(i32 0, 7) i32 @new_untracked_cache_flags(ptr %.240.val) unnamed_addr #0 {
  %1 = alloca ptr, align 8
  call void @llvm.lifetime.start.p0(i64 8, ptr nonnull %1) #27
  %2 = call i32 @repo_config_get_string_tmp(ptr noundef %.240.val, ptr noundef nonnull @.str.45, ptr noundef nonnull %1) #27
  %.not = icmp eq i32 %2, 0
  br i1 %.not, label %3, label %6

3:                                                ; preds = %0
  %4 = load ptr, ptr %1, align 8, !tbaa !102
  %5 = call i32 @strcmp(ptr noundef nonnull dereferenceable(1) %4, ptr noundef nonnull dereferenceable(4) @.str.46) #28
  %.not2 = icmp eq i32 %5, 0
  br i1 %.not2, label %7, label %6

6:                                                ; preds = %3, %0
  br label %7

7:                                                ; preds = %3, %6
  %.0 = phi i32 [ 6, %6 ], [ 0, %3 ]
  call void @llvm.lifetime.end.p0(i64 8, ptr nonnull %1) #27
  ret i32 %.0
}